; Function Attrs: mustprogress uwtable
define dso_local void @_ZN4i18n12phonenumbers6strrmmEPNSt7__cxx1112basic_stringIcSt11char_traitsIcESaIcEEERKS6_(ptr noundef %0, ptr noundef nonnull align 8 dereferenceable(32) %1) local_unnamed_addr #0 {
  %3 = getelementptr inbounds nuw i8, ptr %0, i64 8
  %4 = load i64, ptr %3, align 8, !tbaa !10
  %.not910 = icmp samesign eq i64 %4, 0
  br i1 %.not910, label %._crit_edge, label %.lr.ph.preheader

.lr.ph.preheader:                                 ; preds = %2
  %5 = load ptr, ptr %0, align 8, !tbaa !14
  br label %.lr.ph

._crit_edge:                                      ; preds = %17, %2
  ret void

.lr.ph:                                           ; preds = %.lr.ph.preheader, %17
  %.sroa.05.011 = phi ptr [ %.sroa.05.1, %17 ], [ %5, %.lr.ph.preheader ]
  %6 = load i8, ptr %.sroa.05.011, align 1, !tbaa !13
  %7 = tail call noundef i64 @_ZNKSt7__cxx1112basic_stringIcSt11char_traitsIcESaIcEE4findEcm(ptr noundef nonnull align 8 dereferenceable(32) %1, i8 noundef signext %6, i64 noundef 0) #19
  %.not = icmp eq i64 %7, -1
  br i1 %.not, label %15, label %8

8:                                                ; preds = %.lr.ph
  %9 = load ptr, ptr %0, align 8, !tbaa !14
  %10 = ptrtoint ptr %.sroa.05.011 to i64
  %11 = ptrtoint ptr %9 to i64
  %12 = sub i64 %10, %11
  tail call void @_ZNSt7__cxx1112basic_stringIcSt11char_traitsIcESaIcEE8_M_eraseEmm(ptr noundef nonnull align 8 dereferenceable(32) %0, i64 noundef %12, i64 noundef 1)
  %13 = load ptr, ptr %0, align 8, !tbaa !14
  %14 = getelementptr inbounds nuw i8, ptr %13, i64 %12
  br label %17

15:                                               ; preds = %.lr.ph
  %16 = getelementptr inbounds nuw i8, ptr %.sroa.05.011, i64 1
  %.pre = load ptr, ptr %0, align 8, !tbaa !14
  br label %17

17:                                               ; preds = %15, %8
  %18 = phi ptr [ %.pre, %15 ], [ %13, %8 ]
  %.sroa.05.1 = phi ptr [ %16, %15 ], [ %14, %8 ]
  %19 = load i64, ptr %3, align 8, !tbaa !10
  %20 = getelementptr inbounds nuw i8, ptr %18, i64 %19
  %.not9 = icmp eq ptr %.sroa.05.1, %20
  br i1 %.not9, label %._crit_edge, label %.lr.ph, !llvm.loop !63
}